; Function Attrs: nounwind uwtable
define hidden void @SDL_FreeClipboardMimeTypes(ptr noundef captures(none) %0) local_unnamed_addr #0 {
  %2 = getelementptr inbounds nuw i8, ptr %0, i64 880
  %3 = load ptr, ptr %2, align 8
  %.not = icmp eq ptr %3, null
  br i1 %.not, label %13, label %.preheader

.preheader:                                       ; preds = %1
  %4 = getelementptr inbounds nuw i8, ptr %0, i64 888
  %5 = load i64, ptr %4, align 8
  %.not9 = icmp eq i64 %5, 0
  br i1 %.not9, label %._crit_edge, label %.lr.ph

._crit_edge.loopexit:                             ; preds = %.lr.ph
  %.pre = load ptr, ptr %2, align 8
  br label %._crit_edge

._crit_edge:                                      ; preds = %._crit_edge.loopexit, %.preheader
  %6 = phi ptr [ %.pre, %._crit_edge.loopexit ], [ %3, %.preheader ]
  tail call void @SDL_free_REAL(ptr noundef %6) #6
  tail call void @llvm.memset.p0.i64(ptr noundef nonnull align 8 dereferenceable(16) %2, i8 0, i64 16, i1 false)
  br label %13

.lr.ph:                                           ; preds = %.preheader, %.lr.ph
  %.08 = phi i64 [ %10, %.lr.ph ], [ 0, %.preheader ]
  %7 = load ptr, ptr %2, align 8
  %8 = getelementptr inbounds nuw ptr, ptr %7, i64 %.08
  %9 = load ptr, ptr %8, align 8
  tail call void @SDL_free_REAL(ptr noundef %9) #6
  %10 = add nuw i64 %.08, 1
  %11 = load i64, ptr %4, align 8
  %12 = icmp ult i64 %10, %11
  br i1 %12, label %.lr.ph, label %._crit_edge.loopexit, !llvm.loop !3

13:                                               ; preds = %._crit_edge, %1
  ret void
}